; Function Attrs: mustprogress uwtable
define hidden void @_ZN3sat8use_list4initEj(ptr noundef nonnull align 8 dereferenceable(8) %this, i32 noundef %num_vars) local_unnamed_addr #3 align 2 personality ptr @__gxx_personality_v0 {
entry:
  %0 = load ptr, ptr %this, align 8
  %tobool.not.i = icmp eq ptr %0, null
  br i1 %tobool.not.i, label %_ZN6vectorIN3sat15clause_use_listELb1EjE5resetEv.exit, label %_ZNK6vectorIN3sat15clause_use_listELb1EjE4sizeEv.exit.i.i

_ZNK6vectorIN3sat15clause_use_listELb1EjE4sizeEv.exit.i.i: ; preds = %entry
  %arrayidx.i.i.i = getelementptr inbounds i8, ptr %0, i64 -4
  %1 = load i32, ptr %arrayidx.i.i.i, align 4
  %cmp.not5.i.i.i.i.i = icmp eq i32 %1, 0
  br i1 %cmp.not5.i.i.i.i.i, label %_ZN6vectorIN3sat15clause_use_listELb1EjE16destroy_elementsEv.exit.i, label %for.body.i.i.i.i.i

for.body.i.i.i.i.i:                               ; preds = %_ZNK6vectorIN3sat15clause_use_listELb1EjE4sizeEv.exit.i.i, %_ZSt8_DestroyIN3sat15clause_use_listEEvPT_.exit.i.i.i.i.i
  %__count.addr.07.i.i.i.i.i = phi i32 [ %dec.i.i.i.i.i, %_ZSt8_DestroyIN3sat15clause_use_listEEvPT_.exit.i.i.i.i.i ], [ %1, %_ZNK6vectorIN3sat15clause_use_listELb1EjE4sizeEv.exit.i.i ]
  %__first.addr.06.i.i.i.i.i = phi ptr [ %incdec.ptr.i.i.i.i.i, %_ZSt8_DestroyIN3sat15clause_use_listEEvPT_.exit.i.i.i.i.i ], [ %0, %_ZNK6vectorIN3sat15clause_use_listELb1EjE4sizeEv.exit.i.i ]
  %2 = load ptr, ptr %__first.addr.06.i.i.i.i.i, align 8
  %tobool.not.i.i.i.i.i.i.i.i.i.i = icmp eq ptr %2, null
  br i1 %tobool.not.i.i.i.i.i.i.i.i.i.i, label %_ZSt8_DestroyIN3sat15clause_use_listEEvPT_.exit.i.i.i.i.i, label %if.then.i.i.i.i.i.i.i.i.i.i

if.then.i.i.i.i.i.i.i.i.i.i:                      ; preds = %for.body.i.i.i.i.i
  %add.ptr.i.i.i.i.i.i.i.i.i.i.i = getelementptr inbounds i8, ptr %2, i64 -8
  invoke void @_ZN6memory10deallocateEPv(ptr noundef nonnull %add.ptr.i.i.i.i.i.i.i.i.i.i.i)
          to label %_ZSt8_DestroyIN3sat15clause_use_listEEvPT_.exit.i.i.i.i.i unwind label %terminate.lpad.i.i.i.i.i.i.i.i.i

terminate.lpad.i.i.i.i.i.i.i.i.i:                 ; preds = %if.then.i.i.i.i.i.i.i.i.i.i
  %3 = landingpad { ptr, i32 }
          catch ptr null
  %4 = extractvalue { ptr, i32 } %3, 0
  tail call void @__clang_call_terminate(ptr %4) #21
  unreachable

_ZSt8_DestroyIN3sat15clause_use_listEEvPT_.exit.i.i.i.i.i: ; preds = %if.then.i.i.i.i.i.i.i.i.i.i, %for.body.i.i.i.i.i
  %incdec.ptr.i.i.i.i.i = getelementptr inbounds i8, ptr %__first.addr.06.i.i.i.i.i, i64 16
  %dec.i.i.i.i.i = add i32 %__count.addr.07.i.i.i.i.i, -1
  %cmp.not.i.i.i.i.i = icmp eq i32 %dec.i.i.i.i.i, 0
  br i1 %cmp.not.i.i.i.i.i, label %_ZN6vectorIN3sat15clause_use_listELb1EjE16destroy_elementsEv.exit.loopexit.i, label %for.body.i.i.i.i.i, !llvm.loop !4

_ZN6vectorIN3sat15clause_use_listELb1EjE16destroy_elementsEv.exit.loopexit.i: ; preds = %_ZSt8_DestroyIN3sat15clause_use_listEEvPT_.exit.i.i.i.i.i
  %.pre.i = load ptr, ptr %this, align 8
  br label %_ZN6vectorIN3sat15clause_use_listELb1EjE16destroy_elementsEv.exit.i

_ZN6vectorIN3sat15clause_use_listELb1EjE16destroy_elementsEv.exit.i: ; preds = %_ZN6vectorIN3sat15clause_use_listELb1EjE16destroy_elementsEv.exit.loopexit.i, %_ZNK6vectorIN3sat15clause_use_listELb1EjE4sizeEv.exit.i.i
  %5 = phi ptr [ %.pre.i, %_ZN6vectorIN3sat15clause_use_listELb1EjE16destroy_elementsEv.exit.loopexit.i ], [ %0, %_ZNK6vectorIN3sat15clause_use_listELb1EjE4sizeEv.exit.i.i ]
  %arrayidx.i = getelementptr inbounds i8, ptr %5, i64 -4
  store i32 0, ptr %arrayidx.i, align 4
  br label %_ZN6vectorIN3sat15clause_use_listELb1EjE5resetEv.exit

_ZN6vectorIN3sat15clause_use_listELb1EjE5resetEv.exit: ; preds = %entry, %_ZN6vectorIN3sat15clause_use_listELb1EjE16destroy_elementsEv.exit.i
  %mul = shl i32 %num_vars, 1
  tail call void @_ZN6vectorIN3sat15clause_use_listELb1EjE6resizeEj(ptr noundef nonnull align 8 dereferenceable(8) %this, i32 noundef %mul)
  ret void
}